target datalayout = "e-m:e-p270:32:32-p271:32:32-p272:64:64-i64:64-i128:128-f80:128-n8:16:32:64-S128"
target triple = "x86_64-pc-linux-gnu"

%struct.stat = type { i64, i64, i64, i32, i32, i32, i32, i64, i64, i64, i64, %struct.timespec, %struct.timespec, %struct.timespec, [3 x i64] }
%struct.timespec = type { i64, i64 }

; Function Attrs: mustprogress nounwind uwtable
define noundef i64 @_ZN32pxrInternal_v0_24__pxrReserved__17ArchGetFileLengthEPKc(ptr noundef %0) #2 {
  %2 = alloca ptr, align 8
  %3 = alloca %struct.stat, align 8
  store ptr %0, ptr %2, align 8
  %4 = load ptr, ptr %2, align 8
  %5 = call i32 @stat(ptr noundef %4, ptr noundef %3) #6
  %6 = icmp slt i32 %5, 0
  br i1 %6, label %7, label %8

7:                                                ; preds = %1
  br label %11

8:                                                ; preds = %1
  %9 = getelementptr inbounds nuw %struct.stat, ptr %3, i32 0, i32 8
  %10 = load i64, ptr %9, align 8
  br label %11

11:                                               ; preds = %8, %7
  %12 = phi i64 [ -1, %7 ], [ %10, %8 ]
  ret i64 %12
}