; Function Attrs: mustprogress nofree nounwind uwtable
define noundef i64 @_ZN32pxrInternal_v0_24__pxrReserved__17ArchGetFileLengthEPKc(ptr noundef readonly captures(none) %0) local_unnamed_addr #0 {
  %2 = alloca %struct.stat, align 8
  %3 = call i32 @stat(ptr noundef %0, ptr noundef nonnull %2) #23
  %4 = icmp slt i32 %3, 0
  %5 = getelementptr inbounds nuw i8, ptr %2, i64 48
  %6 = load i64, ptr %5, align 8
  %7 = select i1 %4, i64 -1, i64 %6
  ret i64 %7
}